target datalayout = "e-m:e-p270:32:32-p271:32:32-p272:64:64-i64:64-i128:128-f80:128-n8:16:32:64-S128"
target triple = "x86_64-pc-linux-gnu"

%class.dtTileCache = type { i32, i32, ptr, ptr, ptr, i32, i32, %struct.dtTileCacheParams, ptr, ptr, ptr, ptr, ptr, [64 x %"struct.dtTileCache::ObstacleRequest"], i32, [64 x i32], i32 }
%struct.dtTileCacheParams = type { [3 x float], float, float, i32, i32, float, float, float, float, i32, i32 }
%"struct.dtTileCache::ObstacleRequest" = type { i32, i32 }
%struct.dtTileCacheObstacle = type { %union.anon, [8 x i32], [8 x i32], i16, i8, i8, i8, i8, ptr }
%union.anon = type { %struct.dtObstacleOrientedBox }
%struct.dtObstacleOrientedBox = type { [3 x float], [3 x float], [2 x float] }

; Function Attrs: mustprogress nounwind uwtable
define linkonce_odr noundef i32 @_ZNK11dtTileCache16encodeObstacleIdEjj(ptr noundef nonnull align 8 dereferenceable(912) %0, i32 noundef %1, i32 noundef %2) #2 comdat align 2 {
  %4 = alloca ptr, align 8
  %5 = alloca i32, align 4
  %6 = alloca i32, align 4
  store ptr %0, ptr %4, align 8
  store i32 %1, ptr %5, align 4
  store i32 %2, ptr %6, align 4
  %7 = load i32, ptr %5, align 4
  %8 = shl i32 %7, 16
  %9 = load i32, ptr %6, align 4
  %10 = or i32 %8, %9
  ret i32 %10
}

; Function Attrs: mustprogress uwtable
define noundef i32 @_ZNK11dtTileCache14getObstacleRefEPK19dtTileCacheObstacle(ptr noundef nonnull align 8 dereferenceable(912) %0, ptr noundef %1) #0 align 2 {
  %3 = alloca i32, align 4
  %4 = alloca ptr, align 8
  %5 = alloca ptr, align 8
  %6 = alloca i32, align 4
  store ptr %0, ptr %4, align 8
  store ptr %1, ptr %5, align 8
  %7 = load ptr, ptr %4, align 8
  %8 = load ptr, ptr %5, align 8
  %9 = icmp ne ptr %8, null
  br i1 %9, label %11, label %10

10:                                               ; preds = %2
  store i32 0, ptr %3, align 4
  br label %26

11:                                               ; preds = %2
  %12 = load ptr, ptr %5, align 8
  %13 = getelementptr inbounds %class.dtTileCache, ptr %7, i32 0, i32 11
  %14 = load ptr, ptr %13, align 8
  %15 = ptrtoint ptr %12 to i64
  %16 = ptrtoint ptr %14 to i64
  %17 = sub i64 %15, %16
  %18 = sdiv exact i64 %17, 112
  %19 = trunc i64 %18 to i32
  store i32 %19, ptr %6, align 4
  %20 = load ptr, ptr %5, align 8
  %21 = getelementptr inbounds %struct.dtTileCacheObstacle, ptr %20, i32 0, i32 3
  %22 = load i16, ptr %21, align 8
  %23 = zext i16 %22 to i32
  %24 = load i32, ptr %6, align 4
  %25 = call noundef i32 @_ZNK11dtTileCache16encodeObstacleIdEjj(ptr noundef nonnull align 8 dereferenceable(912) %7, i32 noundef %23, i32 noundef %24)
  store i32 %25, ptr %3, align 4
  br label %26

26:                                               ; preds = %11, %10
  %27 = load i32, ptr %3, align 4
  ret i32 %27
}

; Function Attrs: mustprogress nounwind uwtable
define linkonce_odr void @_Z7dtVcopyPfPKf(ptr noundef %0, ptr noundef %1) #2 comdat {
  %3 = alloca ptr, align 8
  %4 = alloca ptr, align 8
  store ptr %0, ptr %3, align 8
  store ptr %1, ptr %4, align 8
  %5 = load ptr, ptr %4, align 8
  %6 = getelementptr inbounds float, ptr %5, i64 0
  %7 = load float, ptr %6, align 4
  %8 = load ptr, ptr %3, align 8
  %9 = getelementptr inbounds float, ptr %8, i64 0
  store float %7, ptr %9, align 4
  %10 = load ptr, ptr %4, align 8
  %11 = getelementptr inbounds float, ptr %10, i64 1
  %12 = load float, ptr %11, align 4
  %13 = load ptr, ptr %3, align 8
  %14 = getelementptr inbounds float, ptr %13, i64 1
  store float %12, ptr %14, align 4
  %15 = load ptr, ptr %4, align 8
  %16 = getelementptr inbounds float, ptr %15, i64 2
  %17 = load float, ptr %16, align 4
  %18 = load ptr, ptr %3, align 8
  %19 = getelementptr inbounds float, ptr %18, i64 2
  store float %17, ptr %19, align 4
  ret void
}

; Function Attrs: mustprogress uwtable
define noundef i32 @_ZN11dtTileCache14addBoxObstacleEPKfS1_fPj(ptr noundef nonnull align 8 dereferenceable(912) %0, ptr noundef %1, ptr noundef %2, float noundef %3, ptr noundef %4) #0 align 2 {
  %6 = alloca i32, align 4
  %7 = alloca ptr, align 8
  %8 = alloca ptr, align 8
  %9 = alloca ptr, align 8
  %10 = alloca float, align 4
  %11 = alloca ptr, align 8
  %12 = alloca ptr, align 8
  %13 = alloca i16, align 2
  %14 = alloca float, align 4
  %15 = alloca float, align 4
  %16 = alloca ptr, align 8
  store ptr %0, ptr %7, align 8
  store ptr %1, ptr %8, align 8
  store ptr %2, ptr %9, align 8
  store float %3, ptr %10, align 4
  store ptr %4, ptr %11, align 8
  %17 = load ptr, ptr %7, align 8
  %18 = getelementptr inbounds %class.dtTileCache, ptr %17, i32 0, i32 14
  %19 = load i32, ptr %18, align 8
  %20 = icmp sge i32 %19, 64
  br i1 %20, label %21, label %22

21:                                               ; preds = %5
  store i32 -2147483632, ptr %6, align 4
  br label %102

22:                                               ; preds = %5
  store ptr null, ptr %12, align 8
  %23 = getelementptr inbounds %class.dtTileCache, ptr %17, i32 0, i32 12
  %24 = load ptr, ptr %23, align 8
  %25 = icmp ne ptr %24, null
  br i1 %25, label %26, label %35

26:                                               ; preds = %22
  %27 = getelementptr inbounds %class.dtTileCache, ptr %17, i32 0, i32 12
  %28 = load ptr, ptr %27, align 8
  store ptr %28, ptr %12, align 8
  %29 = load ptr, ptr %12, align 8
  %30 = getelementptr inbounds %struct.dtTileCacheObstacle, ptr %29, i32 0, i32 8
  %31 = load ptr, ptr %30, align 8
  %32 = getelementptr inbounds %class.dtTileCache, ptr %17, i32 0, i32 12
  store ptr %31, ptr %32, align 8
  %33 = load ptr, ptr %12, align 8
  %34 = getelementptr inbounds %struct.dtTileCacheObstacle, ptr %33, i32 0, i32 8
  store ptr null, ptr %34, align 8
  br label %35

35:                                               ; preds = %26, %22
  %36 = load ptr, ptr %12, align 8
  %37 = icmp ne ptr %36, null
  br i1 %37, label %39, label %38

38:                                               ; preds = %35
  store i32 -2147483644, ptr %6, align 4
  br label %102

39:                                               ; preds = %35
  %40 = load ptr, ptr %12, align 8
  %41 = getelementptr inbounds %struct.dtTileCacheObstacle, ptr %40, i32 0, i32 3
  %42 = load i16, ptr %41, align 8
  store i16 %42, ptr %13, align 2
  %43 = load ptr, ptr %12, align 8
  call void @llvm.memset.p0.i64(ptr align 8 %43, i8 0, i64 112, i1 false)
  %44 = load i16, ptr %13, align 2
  %45 = load ptr, ptr %12, align 8
  %46 = getelementptr inbounds %struct.dtTileCacheObstacle, ptr %45, i32 0, i32 3
  store i16 %44, ptr %46, align 8
  %47 = load ptr, ptr %12, align 8
  %48 = getelementptr inbounds %struct.dtTileCacheObstacle, ptr %47, i32 0, i32 5
  store i8 1, ptr %48, align 1
  %49 = load ptr, ptr %12, align 8
  %50 = getelementptr inbounds %struct.dtTileCacheObstacle, ptr %49, i32 0, i32 4
  store i8 2, ptr %50, align 2
  %51 = load ptr, ptr %12, align 8
  %52 = getelementptr inbounds %struct.dtTileCacheObstacle, ptr %51, i32 0, i32 0
  %53 = getelementptr inbounds %struct.dtObstacleOrientedBox, ptr %52, i32 0, i32 0
  %54 = getelementptr inbounds [3 x float], ptr %53, i64 0, i64 0
  %55 = load ptr, ptr %8, align 8
  call void @_Z7dtVcopyPfPKf(ptr noundef %54, ptr noundef %55)
  %56 = load ptr, ptr %12, align 8
  %57 = getelementptr inbounds %struct.dtTileCacheObstacle, ptr %56, i32 0, i32 0
  %58 = getelementptr inbounds %struct.dtObstacleOrientedBox, ptr %57, i32 0, i32 1
  %59 = getelementptr inbounds [3 x float], ptr %58, i64 0, i64 0
  %60 = load ptr, ptr %9, align 8
  call void @_Z7dtVcopyPfPKf(ptr noundef %59, ptr noundef %60)
  %61 = load float, ptr %10, align 4
  %62 = fmul float 5.000000e-01, %61
  %63 = call float @cosf(float noundef %62) #9
  store float %63, ptr %14, align 4
  %64 = load float, ptr %10, align 4
  %65 = fmul float -5.000000e-01, %64
  %66 = call float @sinf(float noundef %65) #9
  store float %66, ptr %15, align 4
  %67 = load float, ptr %14, align 4
  %68 = load float, ptr %15, align 4
  %69 = fmul float %67, %68
  %70 = load ptr, ptr %12, align 8
  %71 = getelementptr inbounds %struct.dtTileCacheObstacle, ptr %70, i32 0, i32 0
  %72 = getelementptr inbounds %struct.dtObstacleOrientedBox, ptr %71, i32 0, i32 2
  %73 = getelementptr inbounds [2 x float], ptr %72, i64 0, i64 0
  store float %69, ptr %73, align 8
  %74 = load float, ptr %14, align 4
  %75 = load float, ptr %14, align 4
  %76 = call float @llvm.fmuladd.f32(float %74, float %75, float -5.000000e-01)
  %77 = load ptr, ptr %12, align 8
  %78 = getelementptr inbounds %struct.dtTileCacheObstacle, ptr %77, i32 0, i32 0
  %79 = getelementptr inbounds %struct.dtObstacleOrientedBox, ptr %78, i32 0, i32 2
  %80 = getelementptr inbounds [2 x float], ptr %79, i64 0, i64 1
  store float %76, ptr %80, align 4
  %81 = getelementptr inbounds %class.dtTileCache, ptr %17, i32 0, i32 13
  %82 = getelementptr inbounds %class.dtTileCache, ptr %17, i32 0, i32 14
  %83 = load i32, ptr %82, align 8
  %84 = add nsw i32 %83, 1
  store i32 %84, ptr %82, align 8
  %85 = sext i32 %83 to i64
  %86 = getelementptr inbounds [64 x %"struct.dtTileCache::ObstacleRequest"], ptr %81, i64 0, i64 %85
  store ptr %86, ptr %16, align 8
  %87 = load ptr, ptr %16, align 8
  call void @llvm.memset.p0.i64(ptr align 4 %87, i8 0, i64 8, i1 false)
  %88 = load ptr, ptr %16, align 8
  %89 = getelementptr inbounds %"struct.dtTileCache::ObstacleRequest", ptr %88, i32 0, i32 0
  store i32 0, ptr %89, align 4
  %90 = load ptr, ptr %12, align 8
  %91 = call noundef i32 @_ZNK11dtTileCache14getObstacleRefEPK19dtTileCacheObstacle(ptr noundef nonnull align 8 dereferenceable(912) %17, ptr noundef %90)
  %92 = load ptr, ptr %16, align 8
  %93 = getelementptr inbounds %"struct.dtTileCache::ObstacleRequest", ptr %92, i32 0, i32 1
  store i32 %91, ptr %93, align 4
  %94 = load ptr, ptr %11, align 8
  %95 = icmp ne ptr %94, null
  br i1 %95, label %96, label %101

96:                                               ; preds = %39
  %97 = load ptr, ptr %16, align 8
  %98 = getelementptr inbounds %"struct.dtTileCache::ObstacleRequest", ptr %97, i32 0, i32 1
  %99 = load i32, ptr %98, align 4
  %100 = load ptr, ptr %11, align 8
  store i32 %99, ptr %100, align 4
  br label %101

101:                                              ; preds = %96, %39
  store i32 1073741824, ptr %6, align 4
  br label %102

102:                                              ; preds = %101, %38, %21
  %103 = load i32, ptr %6, align 4
  ret i32 %103
}