; Function Attrs: mustprogress nofree nounwind willreturn memory(readwrite, inaccessiblemem: write) uwtable
define noundef range(i32 1073741824, -2147483631) i32 @_ZN11dtTileCache14addBoxObstacleEPKfS1_fPj(ptr noundef nonnull align 8 captures(none) dereferenceable(912) %0, ptr noundef readonly captures(none) %1, ptr noundef readonly captures(none) %2, float noundef %3, ptr noundef writeonly %4) local_unnamed_addr #16 align 2 {
  %6 = getelementptr inbounds nuw i8, ptr %0, i64 648
  %7 = load i32, ptr %6, align 8
  %8 = icmp sgt i32 %7, 63
  br i1 %8, label %.thread, label %9

9:                                                ; preds = %5
  %10 = getelementptr inbounds nuw i8, ptr %0, i64 128
  %11 = load ptr, ptr %10, align 8
  %.not = icmp eq ptr %11, null
  br i1 %.not, label %.thread, label %_ZNK11dtTileCache14getObstacleRefEPK19dtTileCacheObstacle.exit

_ZNK11dtTileCache14getObstacleRefEPK19dtTileCacheObstacle.exit: ; preds = %9
  %12 = getelementptr inbounds nuw i8, ptr %11, i64 104
  %13 = load ptr, ptr %12, align 8
  store ptr %13, ptr %10, align 8
  %14 = getelementptr inbounds nuw i8, ptr %11, i64 96
  %15 = load i16, ptr %14, align 8
  tail call void @llvm.memset.p0.i64(ptr noundef nonnull align 8 dereferenceable(112) %11, i8 0, i64 112, i1 false)
  store i16 %15, ptr %14, align 8
  %16 = getelementptr inbounds nuw i8, ptr %11, i64 99
  store i8 1, ptr %16, align 1
  %17 = getelementptr inbounds nuw i8, ptr %11, i64 98
  store i8 2, ptr %17, align 2
  %18 = load float, ptr %1, align 4
  store float %18, ptr %11, align 4
  %19 = getelementptr inbounds nuw i8, ptr %1, i64 4
  %20 = load float, ptr %19, align 4
  %21 = getelementptr inbounds nuw i8, ptr %11, i64 4
  store float %20, ptr %21, align 4
  %22 = getelementptr inbounds nuw i8, ptr %1, i64 8
  %23 = load float, ptr %22, align 4
  %24 = getelementptr inbounds nuw i8, ptr %11, i64 8
  store float %23, ptr %24, align 4
  %25 = getelementptr inbounds nuw i8, ptr %11, i64 12
  %26 = load float, ptr %2, align 4
  store float %26, ptr %25, align 4
  %27 = getelementptr inbounds nuw i8, ptr %2, i64 4
  %28 = load float, ptr %27, align 4
  %29 = getelementptr inbounds nuw i8, ptr %11, i64 16
  store float %28, ptr %29, align 4
  %30 = getelementptr inbounds nuw i8, ptr %2, i64 8
  %31 = load float, ptr %30, align 4
  %32 = getelementptr inbounds nuw i8, ptr %11, i64 20
  store float %31, ptr %32, align 4
  %33 = fmul float %3, 5.000000e-01
  %34 = tail call float @cosf(float noundef %33) #21
  %35 = fmul float %3, -5.000000e-01
  %36 = tail call float @sinf(float noundef %35) #21
  %37 = fmul float %34, %36
  %38 = getelementptr inbounds nuw i8, ptr %11, i64 24
  store float %37, ptr %38, align 8
  %39 = tail call float @llvm.fmuladd.f32(float %34, float %34, float -5.000000e-01)
  %40 = getelementptr inbounds nuw i8, ptr %11, i64 28
  store float %39, ptr %40, align 4
  %41 = getelementptr inbounds nuw i8, ptr %0, i64 136
  %42 = load i32, ptr %6, align 8
  %43 = add nsw i32 %42, 1
  store i32 %43, ptr %6, align 8
  %44 = sext i32 %42 to i64
  %45 = getelementptr inbounds [64 x %"struct.dtTileCache::ObstacleRequest"], ptr %41, i64 0, i64 %44
  store i64 0, ptr %45, align 8
  %46 = getelementptr inbounds nuw i8, ptr %0, i64 120
  %47 = load ptr, ptr %46, align 8
  %48 = ptrtoint ptr %11 to i64
  %49 = ptrtoint ptr %47 to i64
  %50 = sub i64 %48, %49
  %51 = sdiv exact i64 %50, 112
  %52 = trunc i64 %51 to i32
  %53 = load i16, ptr %14, align 8
  %54 = zext i16 %53 to i32
  %55 = shl nuw i32 %54, 16
  %56 = or i32 %55, %52
  %57 = getelementptr inbounds nuw i8, ptr %45, i64 4
  store i32 %56, ptr %57, align 4
  %.not33 = icmp eq ptr %4, null
  br i1 %.not33, label %.thread, label %58

58:                                               ; preds = %_ZNK11dtTileCache14getObstacleRefEPK19dtTileCacheObstacle.exit
  store i32 %56, ptr %4, align 4
  br label %.thread

.thread:                                          ; preds = %9, %_ZNK11dtTileCache14getObstacleRefEPK19dtTileCacheObstacle.exit, %58, %5
  %.0 = phi i32 [ -2147483632, %5 ], [ 1073741824, %58 ], [ 1073741824, %_ZNK11dtTileCache14getObstacleRefEPK19dtTileCacheObstacle.exit ], [ -2147483644, %9 ]
  ret i32 %.0
}